   1               		.file	"led.c"
   2               	__SP_H__ = 0x3e
   3               	__SP_L__ = 0x3d
   4               	__SREG__ = 0x3f
   5               	__tmp_reg__ = 0
   6               	__zero_reg__ = 1
   7               		.text
   8               	.Ltext0:
   9               		.cfi_sections	.debug_frame
  10               	.global	i2c_init
  12               	i2c_init:
  13               	.LFB6:
  14               		.file 1 "LCD.h"
   1:LCD.h         **** #ifndef LCD_H
   2:LCD.h         **** #define LCD_H
   3:LCD.h         **** 
   4:LCD.h         **** #include <avr/io.h>
   5:LCD.h         **** #include <util/delay.h>
   6:LCD.h         **** #include <compat/twi.h>
   7:LCD.h         **** 
   8:LCD.h         **** // LCD I2C address (usually 0x27 or 0x3F depending on your module)
   9:LCD.h         **** #define LCD_I2C_ADDRESS 0x27
  10:LCD.h         **** 
  11:LCD.h         **** // LCD Control bits
  12:LCD.h         **** #define LCD_BACKLIGHT 0x08  // On
  13:LCD.h         **** #define LCD_ENABLE    0x04  // Enable bit
  14:LCD.h         **** #define LCD_RW        0x02  // Read/Write bit
  15:LCD.h         **** #define LCD_RS        0x01  // Register select bit
  16:LCD.h         **** 
  17:LCD.h         **** // I2C initialization
  18:LCD.h         **** void i2c_init(void) {
  15               		.loc 1 18 0
  16               		.cfi_startproc
  17               	/* prologue: function */
  18               	/* frame size = 0 */
  19               	/* stack size = 0 */
  20               	.L__stack_usage = 0
  19:LCD.h         ****     TWSR = 0x00; // Set prescaler bits to 0
  21               		.loc 1 19 0
  22 0000 1092 B900 		sts 185,__zero_reg__
  20:LCD.h         ****     TWBR = 0x0C; // SCL frequency is 400kHz with 16MHz clock
  23               		.loc 1 20 0
  24 0004 8CE0      		ldi r24,lo8(12)
  25 0006 8093 B800 		sts 184,r24
  21:LCD.h         ****     TWCR = (1 << TWEN); // Enable TWI (I2C)
  26               		.loc 1 21 0
  27 000a 84E0      		ldi r24,lo8(4)
  28 000c 8093 BC00 		sts 188,r24
  29 0010 0895      		ret
  30               		.cfi_endproc
  31               	.LFE6:
  33               	.global	i2c_start
  35               	i2c_start:
  36               	.LFB7:
  22:LCD.h         **** }
  23:LCD.h         **** 
  24:LCD.h         **** // Send START condition on I2C
  25:LCD.h         **** void i2c_start(void) {
  37               		.loc 1 25 0
  38               		.cfi_startproc
  39               	/* prologue: function */
  40               	/* frame size = 0 */
  41               	/* stack size = 0 */
  42               	.L__stack_usage = 0
  26:LCD.h         ****     TWCR = (1 << TWSTA) | (1 << TWEN) | (1 << TWINT); // Send START condition
  43               		.loc 1 26 0
  44 0012 84EA      		ldi r24,lo8(-92)
  45 0014 8093 BC00 		sts 188,r24
  46               	.L3:
  27:LCD.h         ****     while (!(TWCR & (1 << TWINT))); // Wait for START to be transmitted
  47               		.loc 1 27 0 discriminator 1
  48 0018 8091 BC00 		lds r24,188
  49 001c 87FF      		sbrs r24,7
  50 001e 00C0      		rjmp .L3
  51               	/* epilogue start */
  28:LCD.h         **** }
  52               		.loc 1 28 0
  53 0020 0895      		ret
  54               		.cfi_endproc
  55               	.LFE7:
  57               	.global	i2c_stop
  59               	i2c_stop:
  60               	.LFB8:
  29:LCD.h         **** 
  30:LCD.h         **** // Send STOP condition on I2C
  31:LCD.h         **** void i2c_stop(void) {
  61               		.loc 1 31 0
  62               		.cfi_startproc
  63               	/* prologue: function */
  64               	/* frame size = 0 */
  65               	/* stack size = 0 */
  66               	.L__stack_usage = 0
  32:LCD.h         ****     TWCR = (1 << TWSTO) | (1 << TWEN) | (1 << TWINT); // Send STOP condition
  67               		.loc 1 32 0
  68 0022 84E9      		ldi r24,lo8(-108)
  69 0024 8093 BC00 		sts 188,r24
  70 0028 0895      		ret
  71               		.cfi_endproc
  72               	.LFE8:
  74               	.global	i2c_write
  76               	i2c_write:
  77               	.LFB9:
  33:LCD.h         **** }
  34:LCD.h         **** 
  35:LCD.h         **** // Write data to I2C
  36:LCD.h         **** void i2c_write(uint8_t data) {
  78               		.loc 1 36 0
  79               		.cfi_startproc
  80               	.LVL0:
  81               	/* prologue: function */
  82               	/* frame size = 0 */
  83               	/* stack size = 0 */
  84               	.L__stack_usage = 0
  37:LCD.h         ****     TWDR = data; // Load data to data register
  85               		.loc 1 37 0
  86 002a 8093 BB00 		sts 187,r24
  38:LCD.h         ****     TWCR = (1 << TWEN) | (1 << TWINT); // Start transmission of data
  87               		.loc 1 38 0
  88 002e 84E8      		ldi r24,lo8(-124)
  89               	.LVL1:
  90 0030 8093 BC00 		sts 188,r24
  91               	.LVL2:
  92               	.L8:
  39:LCD.h         ****     while (!(TWCR & (1 << TWINT))); // Wait for data to be transmitted
  93               		.loc 1 39 0 discriminator 1
  94 0034 8091 BC00 		lds r24,188
  95 0038 87FF      		sbrs r24,7
  96 003a 00C0      		rjmp .L8
  97               	/* epilogue start */
  40:LCD.h         **** }
  98               		.loc 1 40 0
  99 003c 0895      		ret
 100               		.cfi_endproc
 101               	.LFE9:
 103               	.global	lcd_enable
 105               	lcd_enable:
 106               	.LFB10:
  41:LCD.h         **** 
  42:LCD.h         **** // Enable data transmission to LCD
  43:LCD.h         **** void lcd_enable(uint8_t data) {
 107               		.loc 1 43 0
 108               		.cfi_startproc
 109               	.LVL3:
 110 003e CF93      		push r28
 111               	.LCFI0:
 112               		.cfi_def_cfa_offset 3
 113               		.cfi_offset 28, -2
 114               	/* prologue: function */
 115               	/* frame size = 0 */
 116               	/* stack size = 1 */
 117               	.L__stack_usage = 1
 118 0040 C82F      		mov r28,r24
  44:LCD.h         ****     i2c_start();
 119               		.loc 1 44 0
 120 0042 0E94 0000 		call i2c_start
 121               	.LVL4:
  45:LCD.h         ****     i2c_write(LCD_I2C_ADDRESS << 1); // Send address with write bit
 122               		.loc 1 45 0
 123 0046 8EE4      		ldi r24,lo8(78)
 124 0048 0E94 0000 		call i2c_write
 125               	.LVL5:
  46:LCD.h         ****     i2c_write(data | LCD_ENABLE);    // Send data with enable bit set
 126               		.loc 1 46 0
 127 004c 8C2F      		mov r24,r28
 128 004e 8460      		ori r24,lo8(4)
 129 0050 0E94 0000 		call i2c_write
 130               	.LVL6:
 131               	.LBB18:
 132               	.LBB19:
 133               		.file 2 "/usr/lib/avr/include/util/delay.h"
   1:/usr/lib/avr/include/util/delay.h **** /* Copyright (c) 2002, Marek Michalkiewicz
   2:/usr/lib/avr/include/util/delay.h ****    Copyright (c) 2004,2005,2007 Joerg Wunsch
   3:/usr/lib/avr/include/util/delay.h ****    Copyright (c) 2007  Florin-Viorel Petrov
   4:/usr/lib/avr/include/util/delay.h ****    All rights reserved.
   5:/usr/lib/avr/include/util/delay.h **** 
   6:/usr/lib/avr/include/util/delay.h ****    Redistribution and use in source and binary forms, with or without
   7:/usr/lib/avr/include/util/delay.h ****    modification, are permitted provided that the following conditions are met:
   8:/usr/lib/avr/include/util/delay.h **** 
   9:/usr/lib/avr/include/util/delay.h ****    * Redistributions of source code must retain the above copyright
  10:/usr/lib/avr/include/util/delay.h ****      notice, this list of conditions and the following disclaimer.
  11:/usr/lib/avr/include/util/delay.h **** 
  12:/usr/lib/avr/include/util/delay.h ****    * Redistributions in binary form must reproduce the above copyright
  13:/usr/lib/avr/include/util/delay.h ****      notice, this list of conditions and the following disclaimer in
  14:/usr/lib/avr/include/util/delay.h ****      the documentation and/or other materials provided with the
  15:/usr/lib/avr/include/util/delay.h ****      distribution.
  16:/usr/lib/avr/include/util/delay.h **** 
  17:/usr/lib/avr/include/util/delay.h ****    * Neither the name of the copyright holders nor the names of
  18:/usr/lib/avr/include/util/delay.h ****      contributors may be used to endorse or promote products derived
  19:/usr/lib/avr/include/util/delay.h ****      from this software without specific prior written permission.
  20:/usr/lib/avr/include/util/delay.h **** 
  21:/usr/lib/avr/include/util/delay.h ****   THIS SOFTWARE IS PROVIDED BY THE COPYRIGHT HOLDERS AND CONTRIBUTORS "AS IS"
  22:/usr/lib/avr/include/util/delay.h ****   AND ANY EXPRESS OR IMPLIED WARRANTIES, INCLUDING, BUT NOT LIMITED TO, THE
  23:/usr/lib/avr/include/util/delay.h ****   IMPLIED WARRANTIES OF MERCHANTABILITY AND FITNESS FOR A PARTICULAR PURPOSE
  24:/usr/lib/avr/include/util/delay.h ****   ARE DISCLAIMED. IN NO EVENT SHALL THE COPYRIGHT OWNER OR CONTRIBUTORS BE
  25:/usr/lib/avr/include/util/delay.h ****   LIABLE FOR ANY DIRECT, INDIRECT, INCIDENTAL, SPECIAL, EXEMPLARY, OR
  26:/usr/lib/avr/include/util/delay.h ****   CONSEQUENTIAL DAMAGES (INCLUDING, BUT NOT LIMITED TO, PROCUREMENT OF
  27:/usr/lib/avr/include/util/delay.h ****   SUBSTITUTE GOODS OR SERVICES; LOSS OF USE, DATA, OR PROFITS; OR BUSINESS
  28:/usr/lib/avr/include/util/delay.h ****   INTERRUPTION) HOWEVER CAUSED AND ON ANY THEORY OF LIABILITY, WHETHER IN
  29:/usr/lib/avr/include/util/delay.h ****   CONTRACT, STRICT LIABILITY, OR TORT (INCLUDING NEGLIGENCE OR OTHERWISE)
  30:/usr/lib/avr/include/util/delay.h ****   ARISING IN ANY WAY OUT OF THE USE OF THIS SOFTWARE, EVEN IF ADVISED OF THE
  31:/usr/lib/avr/include/util/delay.h ****   POSSIBILITY OF SUCH DAMAGE. */
  32:/usr/lib/avr/include/util/delay.h **** 
  33:/usr/lib/avr/include/util/delay.h **** /* $Id$ */
  34:/usr/lib/avr/include/util/delay.h **** 
  35:/usr/lib/avr/include/util/delay.h **** #ifndef _UTIL_DELAY_H_
  36:/usr/lib/avr/include/util/delay.h **** #define _UTIL_DELAY_H_ 1
  37:/usr/lib/avr/include/util/delay.h **** 
  38:/usr/lib/avr/include/util/delay.h **** #ifndef __DOXYGEN__
  39:/usr/lib/avr/include/util/delay.h **** #  ifndef __HAS_DELAY_CYCLES
  40:/usr/lib/avr/include/util/delay.h **** #    define __HAS_DELAY_CYCLES 1
  41:/usr/lib/avr/include/util/delay.h **** #  endif
  42:/usr/lib/avr/include/util/delay.h **** #endif  /* __DOXYGEN__ */
  43:/usr/lib/avr/include/util/delay.h **** 
  44:/usr/lib/avr/include/util/delay.h **** #include <inttypes.h>
  45:/usr/lib/avr/include/util/delay.h **** #include <util/delay_basic.h>
  46:/usr/lib/avr/include/util/delay.h **** #include <math.h>
  47:/usr/lib/avr/include/util/delay.h **** 
  48:/usr/lib/avr/include/util/delay.h **** /** \file */
  49:/usr/lib/avr/include/util/delay.h **** /** \defgroup util_delay <util/delay.h>: Convenience functions for busy-wait delay loops
  50:/usr/lib/avr/include/util/delay.h ****     \code
  51:/usr/lib/avr/include/util/delay.h ****     #define F_CPU 1000000UL  // 1 MHz
  52:/usr/lib/avr/include/util/delay.h ****     //#define F_CPU 14.7456E6
  53:/usr/lib/avr/include/util/delay.h ****     #include <util/delay.h>
  54:/usr/lib/avr/include/util/delay.h ****     \endcode
  55:/usr/lib/avr/include/util/delay.h **** 
  56:/usr/lib/avr/include/util/delay.h ****     \note As an alternative method, it is possible to pass the
  57:/usr/lib/avr/include/util/delay.h ****     F_CPU macro down to the compiler from the Makefile.
  58:/usr/lib/avr/include/util/delay.h ****     Obviously, in that case, no \c \#define statement should be
  59:/usr/lib/avr/include/util/delay.h ****     used.
  60:/usr/lib/avr/include/util/delay.h **** 
  61:/usr/lib/avr/include/util/delay.h ****     The functions in this header file are wrappers around the basic
  62:/usr/lib/avr/include/util/delay.h ****     busy-wait functions from <util/delay_basic.h>.  They are meant as
  63:/usr/lib/avr/include/util/delay.h ****     convenience functions where actual time values can be specified
  64:/usr/lib/avr/include/util/delay.h ****     rather than a number of cycles to wait for.  The idea behind is
  65:/usr/lib/avr/include/util/delay.h ****     that compile-time constant expressions will be eliminated by
  66:/usr/lib/avr/include/util/delay.h ****     compiler optimization so floating-point expressions can be used
  67:/usr/lib/avr/include/util/delay.h ****     to calculate the number of delay cycles needed based on the CPU
  68:/usr/lib/avr/include/util/delay.h ****     frequency passed by the macro F_CPU.
  69:/usr/lib/avr/include/util/delay.h **** 
  70:/usr/lib/avr/include/util/delay.h ****     \note In order for these functions to work as intended, compiler
  71:/usr/lib/avr/include/util/delay.h ****     optimizations <em>must</em> be enabled, and the delay time
  72:/usr/lib/avr/include/util/delay.h ****     <em>must</em> be an expression that is a known constant at
  73:/usr/lib/avr/include/util/delay.h ****     compile-time.  If these requirements are not met, the resulting
  74:/usr/lib/avr/include/util/delay.h ****     delay will be much longer (and basically unpredictable), and
  75:/usr/lib/avr/include/util/delay.h ****     applications that otherwise do not use floating-point calculations
  76:/usr/lib/avr/include/util/delay.h ****     will experience severe code bloat by the floating-point library
  77:/usr/lib/avr/include/util/delay.h ****     routines linked into the application.
  78:/usr/lib/avr/include/util/delay.h **** 
  79:/usr/lib/avr/include/util/delay.h ****     The functions available allow the specification of microsecond, and
  80:/usr/lib/avr/include/util/delay.h ****     millisecond delays directly, using the application-supplied macro
  81:/usr/lib/avr/include/util/delay.h ****     F_CPU as the CPU clock frequency (in Hertz).
  82:/usr/lib/avr/include/util/delay.h **** 
  83:/usr/lib/avr/include/util/delay.h **** */
  84:/usr/lib/avr/include/util/delay.h **** 
  85:/usr/lib/avr/include/util/delay.h **** #if !defined(__DOXYGEN__)
  86:/usr/lib/avr/include/util/delay.h **** static __inline__ void _delay_us(double __us) __attribute__((__always_inline__));
  87:/usr/lib/avr/include/util/delay.h **** static __inline__ void _delay_ms(double __ms) __attribute__((__always_inline__));
  88:/usr/lib/avr/include/util/delay.h **** #endif
  89:/usr/lib/avr/include/util/delay.h **** 
  90:/usr/lib/avr/include/util/delay.h **** #ifndef F_CPU
  91:/usr/lib/avr/include/util/delay.h **** /* prevent compiler error by supplying a default */
  92:/usr/lib/avr/include/util/delay.h **** # warning "F_CPU not defined for <util/delay.h>"
  93:/usr/lib/avr/include/util/delay.h **** /** \ingroup util_delay
  94:/usr/lib/avr/include/util/delay.h ****     \def F_CPU
  95:/usr/lib/avr/include/util/delay.h ****     \brief CPU frequency in Hz
  96:/usr/lib/avr/include/util/delay.h **** 
  97:/usr/lib/avr/include/util/delay.h ****     The macro F_CPU specifies the CPU frequency to be considered by
  98:/usr/lib/avr/include/util/delay.h ****     the delay macros.  This macro is normally supplied by the
  99:/usr/lib/avr/include/util/delay.h ****     environment (e.g. from within a project header, or the project's
 100:/usr/lib/avr/include/util/delay.h ****     Makefile).  The value 1 MHz here is only provided as a "vanilla"
 101:/usr/lib/avr/include/util/delay.h ****     fallback if no such user-provided definition could be found.
 102:/usr/lib/avr/include/util/delay.h **** 
 103:/usr/lib/avr/include/util/delay.h ****     In terms of the delay functions, the CPU frequency can be given as
 104:/usr/lib/avr/include/util/delay.h ****     a floating-point constant (e.g. 3.6864E6 for 3.6864 MHz).
 105:/usr/lib/avr/include/util/delay.h ****     However, the macros in <util/setbaud.h> require it to be an
 106:/usr/lib/avr/include/util/delay.h ****     integer value.
 107:/usr/lib/avr/include/util/delay.h ****  */
 108:/usr/lib/avr/include/util/delay.h **** # define F_CPU 1000000UL
 109:/usr/lib/avr/include/util/delay.h **** #endif
 110:/usr/lib/avr/include/util/delay.h **** 
 111:/usr/lib/avr/include/util/delay.h **** #ifndef __OPTIMIZE__
 112:/usr/lib/avr/include/util/delay.h **** # warning "Compiler optimizations disabled; functions from <util/delay.h> won't work as designed"
 113:/usr/lib/avr/include/util/delay.h **** #endif
 114:/usr/lib/avr/include/util/delay.h **** 
 115:/usr/lib/avr/include/util/delay.h **** #if __HAS_DELAY_CYCLES && defined(__OPTIMIZE__) && \
 116:/usr/lib/avr/include/util/delay.h ****   !defined(__DELAY_BACKWARD_COMPATIBLE__) &&	   \
 117:/usr/lib/avr/include/util/delay.h ****   __STDC_HOSTED__
 118:/usr/lib/avr/include/util/delay.h **** #  include <math.h>
 119:/usr/lib/avr/include/util/delay.h **** #endif
 120:/usr/lib/avr/include/util/delay.h **** 
 121:/usr/lib/avr/include/util/delay.h **** /**
 122:/usr/lib/avr/include/util/delay.h ****    \ingroup util_delay
 123:/usr/lib/avr/include/util/delay.h **** 
 124:/usr/lib/avr/include/util/delay.h ****    Perform a delay of \c __ms milliseconds, using _delay_loop_2().
 125:/usr/lib/avr/include/util/delay.h **** 
 126:/usr/lib/avr/include/util/delay.h ****    The macro F_CPU is supposed to be defined to a
 127:/usr/lib/avr/include/util/delay.h ****    constant defining the CPU clock frequency (in Hertz).
 128:/usr/lib/avr/include/util/delay.h **** 
 129:/usr/lib/avr/include/util/delay.h ****    The maximal possible delay is 262.14 ms / F_CPU in MHz.
 130:/usr/lib/avr/include/util/delay.h **** 
 131:/usr/lib/avr/include/util/delay.h ****    When the user request delay which exceed the maximum possible one,
 132:/usr/lib/avr/include/util/delay.h ****    _delay_ms() provides a decreased resolution functionality. In this
 133:/usr/lib/avr/include/util/delay.h ****    mode _delay_ms() will work with a resolution of 1/10 ms, providing
 134:/usr/lib/avr/include/util/delay.h ****    delays up to 6.5535 seconds (independent from CPU frequency).  The
 135:/usr/lib/avr/include/util/delay.h ****    user will not be informed about decreased resolution.
 136:/usr/lib/avr/include/util/delay.h **** 
 137:/usr/lib/avr/include/util/delay.h ****    If the avr-gcc toolchain has __builtin_avr_delay_cycles()
 138:/usr/lib/avr/include/util/delay.h ****    support, maximal possible delay is 4294967.295 ms/ F_CPU in MHz. For
 139:/usr/lib/avr/include/util/delay.h ****    values greater than the maximal possible delay, overflows results in
 140:/usr/lib/avr/include/util/delay.h ****    no delay i.e., 0ms.
 141:/usr/lib/avr/include/util/delay.h **** 
 142:/usr/lib/avr/include/util/delay.h ****    Conversion of \c __ms into clock cycles may not always result in
 143:/usr/lib/avr/include/util/delay.h ****    integer.  By default, the clock cycles rounded up to next
 144:/usr/lib/avr/include/util/delay.h ****    integer. This ensures that the user gets at least \c __ms
 145:/usr/lib/avr/include/util/delay.h ****    microseconds of delay.
 146:/usr/lib/avr/include/util/delay.h **** 
 147:/usr/lib/avr/include/util/delay.h ****    Alternatively, by defining the macro \c __DELAY_ROUND_DOWN__, or
 148:/usr/lib/avr/include/util/delay.h ****    \c __DELAY_ROUND_CLOSEST__, before including this header file, the
 149:/usr/lib/avr/include/util/delay.h ****    algorithm can be made to round down, or round to closest integer,
 150:/usr/lib/avr/include/util/delay.h ****    respectively.
 151:/usr/lib/avr/include/util/delay.h **** 
 152:/usr/lib/avr/include/util/delay.h ****    \note
 153:/usr/lib/avr/include/util/delay.h **** 
 154:/usr/lib/avr/include/util/delay.h ****    The implementation of _delay_ms() based on
 155:/usr/lib/avr/include/util/delay.h ****    __builtin_avr_delay_cycles() is not backward compatible with older
 156:/usr/lib/avr/include/util/delay.h ****    implementations.  In order to get functionality backward compatible
 157:/usr/lib/avr/include/util/delay.h ****    with previous versions, the macro \c "__DELAY_BACKWARD_COMPATIBLE__"
 158:/usr/lib/avr/include/util/delay.h ****    must be defined before including this header file. Also, the
 159:/usr/lib/avr/include/util/delay.h ****    backward compatible algorithm will be chosen if the code is
 160:/usr/lib/avr/include/util/delay.h ****    compiled in a <em>freestanding environment</em> (GCC option
 161:/usr/lib/avr/include/util/delay.h ****    \c -ffreestanding), as the math functions required for rounding are
 162:/usr/lib/avr/include/util/delay.h ****    not available to the compiler then.
 163:/usr/lib/avr/include/util/delay.h **** 
 164:/usr/lib/avr/include/util/delay.h ****  */
 165:/usr/lib/avr/include/util/delay.h **** void
 166:/usr/lib/avr/include/util/delay.h **** _delay_ms(double __ms)
 167:/usr/lib/avr/include/util/delay.h **** {
 168:/usr/lib/avr/include/util/delay.h **** 	double __tmp ;
 169:/usr/lib/avr/include/util/delay.h **** #if __HAS_DELAY_CYCLES && defined(__OPTIMIZE__) && \
 170:/usr/lib/avr/include/util/delay.h ****   !defined(__DELAY_BACKWARD_COMPATIBLE__) &&	   \
 171:/usr/lib/avr/include/util/delay.h ****   __STDC_HOSTED__
 172:/usr/lib/avr/include/util/delay.h **** 	uint32_t __ticks_dc;
 173:/usr/lib/avr/include/util/delay.h **** 	extern void __builtin_avr_delay_cycles(unsigned long);
 174:/usr/lib/avr/include/util/delay.h **** 	__tmp = ((F_CPU) / 1e3) * __ms;
 175:/usr/lib/avr/include/util/delay.h **** 
 176:/usr/lib/avr/include/util/delay.h **** 	#if defined(__DELAY_ROUND_DOWN__)
 177:/usr/lib/avr/include/util/delay.h **** 		__ticks_dc = (uint32_t)fabs(__tmp);
 178:/usr/lib/avr/include/util/delay.h **** 
 179:/usr/lib/avr/include/util/delay.h **** 	#elif defined(__DELAY_ROUND_CLOSEST__)
 180:/usr/lib/avr/include/util/delay.h **** 		__ticks_dc = (uint32_t)(fabs(__tmp)+0.5);
 181:/usr/lib/avr/include/util/delay.h **** 
 182:/usr/lib/avr/include/util/delay.h **** 	#else
 183:/usr/lib/avr/include/util/delay.h **** 		//round up by default
 184:/usr/lib/avr/include/util/delay.h **** 		__ticks_dc = (uint32_t)(ceil(fabs(__tmp)));
 185:/usr/lib/avr/include/util/delay.h **** 	#endif
 186:/usr/lib/avr/include/util/delay.h **** 
 187:/usr/lib/avr/include/util/delay.h **** 	__builtin_avr_delay_cycles(__ticks_dc);
 188:/usr/lib/avr/include/util/delay.h **** 
 189:/usr/lib/avr/include/util/delay.h **** #else
 190:/usr/lib/avr/include/util/delay.h **** 	uint16_t __ticks;
 191:/usr/lib/avr/include/util/delay.h **** 	__tmp = ((F_CPU) / 4e3) * __ms;
 192:/usr/lib/avr/include/util/delay.h **** 	if (__tmp < 1.0)
 193:/usr/lib/avr/include/util/delay.h **** 		__ticks = 1;
 194:/usr/lib/avr/include/util/delay.h **** 	else if (__tmp > 65535)
 195:/usr/lib/avr/include/util/delay.h **** 	{
 196:/usr/lib/avr/include/util/delay.h **** 		//	__ticks = requested delay in 1/10 ms
 197:/usr/lib/avr/include/util/delay.h **** 		__ticks = (uint16_t) (__ms * 10.0);
 198:/usr/lib/avr/include/util/delay.h **** 		while(__ticks)
 199:/usr/lib/avr/include/util/delay.h **** 		{
 200:/usr/lib/avr/include/util/delay.h **** 			// wait 1/10 ms
 201:/usr/lib/avr/include/util/delay.h **** 			_delay_loop_2(((F_CPU) / 4e3) / 10);
 202:/usr/lib/avr/include/util/delay.h **** 			__ticks --;
 203:/usr/lib/avr/include/util/delay.h **** 		}
 204:/usr/lib/avr/include/util/delay.h **** 		return;
 205:/usr/lib/avr/include/util/delay.h **** 	}
 206:/usr/lib/avr/include/util/delay.h **** 	else
 207:/usr/lib/avr/include/util/delay.h **** 		__ticks = (uint16_t)__tmp;
 208:/usr/lib/avr/include/util/delay.h **** 	_delay_loop_2(__ticks);
 209:/usr/lib/avr/include/util/delay.h **** #endif
 210:/usr/lib/avr/include/util/delay.h **** }
 211:/usr/lib/avr/include/util/delay.h **** 
 212:/usr/lib/avr/include/util/delay.h **** /**
 213:/usr/lib/avr/include/util/delay.h ****    \ingroup util_delay
 214:/usr/lib/avr/include/util/delay.h **** 
 215:/usr/lib/avr/include/util/delay.h ****    Perform a delay of \c __us microseconds, using _delay_loop_1().
 216:/usr/lib/avr/include/util/delay.h **** 
 217:/usr/lib/avr/include/util/delay.h ****    The macro F_CPU is supposed to be defined to a
 218:/usr/lib/avr/include/util/delay.h ****    constant defining the CPU clock frequency (in Hertz).
 219:/usr/lib/avr/include/util/delay.h **** 
 220:/usr/lib/avr/include/util/delay.h ****    The maximal possible delay is 768 us / F_CPU in MHz.
 221:/usr/lib/avr/include/util/delay.h **** 
 222:/usr/lib/avr/include/util/delay.h ****    If the user requests a delay greater than the maximal possible one,
 223:/usr/lib/avr/include/util/delay.h ****    _delay_us() will automatically call _delay_ms() instead.  The user
 224:/usr/lib/avr/include/util/delay.h ****    will not be informed about this case.
 225:/usr/lib/avr/include/util/delay.h **** 
 226:/usr/lib/avr/include/util/delay.h ****    If the avr-gcc toolchain has __builtin_avr_delay_cycles()
 227:/usr/lib/avr/include/util/delay.h ****    support, maximal possible delay is 4294967.295 us/ F_CPU in MHz. For
 228:/usr/lib/avr/include/util/delay.h ****    values greater than the maximal possible delay, overflow results in
 229:/usr/lib/avr/include/util/delay.h ****    no delay i.e., 0us.
 230:/usr/lib/avr/include/util/delay.h **** 
 231:/usr/lib/avr/include/util/delay.h ****    Conversion of \c __us into clock cycles may not always result in
 232:/usr/lib/avr/include/util/delay.h ****    integer.  By default, the clock cycles rounded up to next
 233:/usr/lib/avr/include/util/delay.h ****    integer. This ensures that the user gets at least \c __us
 234:/usr/lib/avr/include/util/delay.h ****    microseconds of delay.
 235:/usr/lib/avr/include/util/delay.h **** 
 236:/usr/lib/avr/include/util/delay.h ****    Alternatively, by defining the macro \c __DELAY_ROUND_DOWN__, or
 237:/usr/lib/avr/include/util/delay.h ****    \c __DELAY_ROUND_CLOSEST__, before including this header file, the
 238:/usr/lib/avr/include/util/delay.h ****    algorithm can be made to round down, or round to closest integer,
 239:/usr/lib/avr/include/util/delay.h ****    respectively.
 240:/usr/lib/avr/include/util/delay.h **** 
 241:/usr/lib/avr/include/util/delay.h ****    \note
 242:/usr/lib/avr/include/util/delay.h **** 
 243:/usr/lib/avr/include/util/delay.h ****    The implementation of _delay_ms() based on
 244:/usr/lib/avr/include/util/delay.h ****    __builtin_avr_delay_cycles() is not backward compatible with older
 245:/usr/lib/avr/include/util/delay.h ****    implementations.  In order to get functionality backward compatible
 246:/usr/lib/avr/include/util/delay.h ****    with previous versions, the macro \c __DELAY_BACKWARD_COMPATIBLE__
 247:/usr/lib/avr/include/util/delay.h ****    must be defined before including this header file. Also, the
 248:/usr/lib/avr/include/util/delay.h ****    backward compatible algorithm will be chosen if the code is
 249:/usr/lib/avr/include/util/delay.h ****    compiled in a <em>freestanding environment</em> (GCC option
 250:/usr/lib/avr/include/util/delay.h ****    \c -ffreestanding), as the math functions required for rounding are
 251:/usr/lib/avr/include/util/delay.h ****    not available to the compiler then.
 252:/usr/lib/avr/include/util/delay.h **** 
 253:/usr/lib/avr/include/util/delay.h ****  */
 254:/usr/lib/avr/include/util/delay.h **** void
 255:/usr/lib/avr/include/util/delay.h **** _delay_us(double __us)
 256:/usr/lib/avr/include/util/delay.h **** {
 257:/usr/lib/avr/include/util/delay.h **** 	double __tmp ;
 258:/usr/lib/avr/include/util/delay.h **** #if __HAS_DELAY_CYCLES && defined(__OPTIMIZE__) && \
 259:/usr/lib/avr/include/util/delay.h ****   !defined(__DELAY_BACKWARD_COMPATIBLE__) &&	   \
 260:/usr/lib/avr/include/util/delay.h ****   __STDC_HOSTED__
 261:/usr/lib/avr/include/util/delay.h **** 	uint32_t __ticks_dc;
 262:/usr/lib/avr/include/util/delay.h **** 	extern void __builtin_avr_delay_cycles(unsigned long);
 263:/usr/lib/avr/include/util/delay.h **** 	__tmp = ((F_CPU) / 1e6) * __us;
 264:/usr/lib/avr/include/util/delay.h **** 
 265:/usr/lib/avr/include/util/delay.h **** 	#if defined(__DELAY_ROUND_DOWN__)
 266:/usr/lib/avr/include/util/delay.h **** 		__ticks_dc = (uint32_t)fabs(__tmp);
 267:/usr/lib/avr/include/util/delay.h **** 
 268:/usr/lib/avr/include/util/delay.h **** 	#elif defined(__DELAY_ROUND_CLOSEST__)
 269:/usr/lib/avr/include/util/delay.h **** 		__ticks_dc = (uint32_t)(fabs(__tmp)+0.5);
 270:/usr/lib/avr/include/util/delay.h **** 
 271:/usr/lib/avr/include/util/delay.h **** 	#else
 272:/usr/lib/avr/include/util/delay.h **** 		//round up by default
 273:/usr/lib/avr/include/util/delay.h **** 		__ticks_dc = (uint32_t)(ceil(fabs(__tmp)));
 274:/usr/lib/avr/include/util/delay.h **** 	#endif
 275:/usr/lib/avr/include/util/delay.h **** 
 276:/usr/lib/avr/include/util/delay.h **** 	__builtin_avr_delay_cycles(__ticks_dc);
 134               		.loc 2 276 0
 135 0054 0000      		nop
 136               	.LVL7:
 137               	.LBE19:
 138               	.LBE18:
  47:LCD.h         ****     _delay_us(1);
  48:LCD.h         ****     i2c_write(data & ~LCD_ENABLE);   // Clear enable bit
 139               		.loc 1 48 0
 140 0056 8C2F      		mov r24,r28
 141 0058 8B7F      		andi r24,lo8(-5)
 142 005a 0E94 0000 		call i2c_write
 143               	.LVL8:
 144               	.LBB20:
 145               	.LBB21:
 146               		.loc 2 276 0
 147 005e 80E1      		ldi r24,lo8(16)
 148 0060 8A95      	1:	dec r24
 149 0062 01F4      		brne 1b
 150 0064 00C0      		rjmp .
 151               	.LVL9:
 152               	.LBE21:
 153               	.LBE20:
 154               	.LBB22:
 155               	.LBB23:
  32:LCD.h         **** }
 156               		.loc 1 32 0
 157 0066 84E9      		ldi r24,lo8(-108)
 158 0068 8093 BC00 		sts 188,r24
 159               	/* epilogue start */
 160               	.LBE23:
 161               	.LBE22:
  49:LCD.h         ****     _delay_us(50);
  50:LCD.h         ****     i2c_stop();
  51:LCD.h         **** }
 162               		.loc 1 51 0
 163 006c CF91      		pop r28
 164               	.LVL10:
 165 006e 0895      		ret
 166               		.cfi_endproc
 167               	.LFE10:
 169               	.global	lcd_send
 171               	lcd_send:
 172               	.LFB11:
  52:LCD.h         **** 
  53:LCD.h         **** // Send data/command to the LCD
  54:LCD.h         **** void lcd_send(uint8_t data, uint8_t mode) {
 173               		.loc 1 54 0
 174               		.cfi_startproc
 175               	.LVL11:
 176 0070 CF93      		push r28
 177               	.LCFI1:
 178               		.cfi_def_cfa_offset 3
 179               		.cfi_offset 28, -2
 180 0072 DF93      		push r29
 181               	.LCFI2:
 182               		.cfi_def_cfa_offset 4
 183               		.cfi_offset 29, -3
 184               	/* prologue: function */
 185               	/* frame size = 0 */
 186               	/* stack size = 2 */
 187               	.L__stack_usage = 2
 188 0074 C82F      		mov r28,r24
 189 0076 D62F      		mov r29,r22
 190 0078 D860      		ori r29,lo8(8)
 191               	.LVL12:
  55:LCD.h         ****     uint8_t highNibble = (data & 0xF0) | mode | LCD_BACKLIGHT;
  56:LCD.h         ****     uint8_t lowNibble = ((data << 4) & 0xF0) | mode | LCD_BACKLIGHT;
  57:LCD.h         ****     
  58:LCD.h         ****     lcd_enable(highNibble);
 192               		.loc 1 58 0
 193 007a 807F      		andi r24,lo8(-16)
 194               	.LVL13:
 195 007c 8D2B      		or r24,r29
 196               	.LVL14:
 197 007e 0E94 0000 		call lcd_enable
 198               	.LVL15:
  59:LCD.h         ****     lcd_enable(lowNibble);
 199               		.loc 1 59 0
 200 0082 20E1      		ldi r18,lo8(16)
 201 0084 C29F      		mul r28,r18
 202 0086 C001      		movw r24,r0
 203 0088 1124      		clr __zero_reg__
 204 008a 8D2B      		or r24,r29
 205               	/* epilogue start */
  60:LCD.h         **** }
 206               		.loc 1 60 0
 207 008c DF91      		pop r29
 208               	.LVL16:
 209 008e CF91      		pop r28
 210               	.LVL17:
  59:LCD.h         ****     lcd_enable(lowNibble);
 211               		.loc 1 59 0
 212 0090 0C94 0000 		jmp lcd_enable
 213               	.LVL18:
 214               		.cfi_endproc
 215               	.LFE11:
 217               	.global	lcd_command
 219               	lcd_command:
 220               	.LFB12:
  61:LCD.h         **** 
  62:LCD.h         **** // Send command to the LCD
  63:LCD.h         **** void lcd_command(uint8_t cmd) {
 221               		.loc 1 63 0
 222               		.cfi_startproc
 223               	.LVL19:
 224               	/* prologue: function */
 225               	/* frame size = 0 */
 226               	/* stack size = 0 */
 227               	.L__stack_usage = 0
  64:LCD.h         ****     lcd_send(cmd, 0);
 228               		.loc 1 64 0
 229 0094 60E0      		ldi r22,0
 230 0096 0C94 0000 		jmp lcd_send
 231               	.LVL20:
 232               		.cfi_endproc
 233               	.LFE12:
 235               	.global	lcd_print
 237               	lcd_print:
 238               	.LFB13:
  65:LCD.h         **** }
  66:LCD.h         **** 	
  67:LCD.h         **** // Print string on the LCD
  68:LCD.h         **** void lcd_print(char *str) {
 239               		.loc 1 68 0
 240               		.cfi_startproc
 241               	.LVL21:
 242 009a CF93      		push r28
 243               	.LCFI3:
 244               		.cfi_def_cfa_offset 3
 245               		.cfi_offset 28, -2
 246 009c DF93      		push r29
 247               	.LCFI4:
 248               		.cfi_def_cfa_offset 4
 249               		.cfi_offset 29, -3
 250               	/* prologue: function */
 251               	/* frame size = 0 */
 252               	/* stack size = 2 */
 253               	.L__stack_usage = 2
 254 009e EC01      		movw r28,r24
 255               	.LVL22:
 256               	.L14:
  69:LCD.h         ****     while (*str) {
 257               		.loc 1 69 0
 258 00a0 8991      		ld r24,Y+
 259               	.LVL23:
 260 00a2 8823      		tst r24
 261 00a4 01F0      		breq .L16
  70:LCD.h         ****         lcd_send(*str, LCD_RS);
 262               		.loc 1 70 0
 263 00a6 61E0      		ldi r22,lo8(1)
 264 00a8 0E94 0000 		call lcd_send
 265               	.LVL24:
 266 00ac 00C0      		rjmp .L14
 267               	.LVL25:
 268               	.L16:
 269               	/* epilogue start */
  71:LCD.h         ****         str++;
  72:LCD.h         ****     }
  73:LCD.h         **** }
 270               		.loc 1 73 0
 271 00ae DF91      		pop r29
 272 00b0 CF91      		pop r28
 273               	.LVL26:
 274 00b2 0895      		ret
 275               		.cfi_endproc
 276               	.LFE13:
 278               	.global	lcd_clear
 280               	lcd_clear:
 281               	.LFB14:
  74:LCD.h         **** 
  75:LCD.h         **** // Clear the LCD screen
  76:LCD.h         **** void lcd_clear(void) {
 282               		.loc 1 76 0
 283               		.cfi_startproc
 284               	/* prologue: function */
 285               	/* frame size = 0 */
 286               	/* stack size = 0 */
 287               	.L__stack_usage = 0
  77:LCD.h         ****     lcd_command(0x01); // Clear display command
 288               		.loc 1 77 0
 289 00b4 81E0      		ldi r24,lo8(1)
 290 00b6 0E94 0000 		call lcd_command
 291               	.LVL27:
 292               	.LBB24:
 293               	.LBB25:
 187:/usr/lib/avr/include/util/delay.h **** 
 294               		.loc 2 187 0
 295 00ba 83EF      		ldi r24,lo8(499)
 296 00bc 91E0      		ldi r25,hi8(499)
 297 00be 0197      	1:	sbiw r24,1
 298 00c0 01F4      		brne 1b
 299 00c2 00C0      		rjmp .
 300 00c4 0000      		nop
 301               	.LVL28:
 302 00c6 0895      		ret
 303               	.LBE25:
 304               	.LBE24:
 305               		.cfi_endproc
 306               	.LFE14:
 308               		.section	.rodata
 309               	.LC0:
 310 0000 00        		.byte	0
 311 0001 40        		.byte	64
 312 0002 14        		.byte	20
 313 0003 54        		.byte	84
 314               		.text
 315               	.global	lcd_setCursor
 317               	lcd_setCursor:
 318               	.LFB15:
  78:LCD.h         ****     _delay_ms(2);      // Wait for the command to execute
  79:LCD.h         **** }
  80:LCD.h         **** 
  81:LCD.h         **** // Set cursor position on the LCD
  82:LCD.h         **** void lcd_setCursor(uint8_t col, uint8_t row) {
 319               		.loc 1 82 0
 320               		.cfi_startproc
 321               	.LVL29:
 322 00c8 0F93      		push r16
 323               	.LCFI5:
 324               		.cfi_def_cfa_offset 3
 325               		.cfi_offset 16, -2
 326 00ca 1F93      		push r17
 327               	.LCFI6:
 328               		.cfi_def_cfa_offset 4
 329               		.cfi_offset 17, -3
 330 00cc CF93      		push r28
 331               	.LCFI7:
 332               		.cfi_def_cfa_offset 5
 333               		.cfi_offset 28, -4
 334 00ce DF93      		push r29
 335               	.LCFI8:
 336               		.cfi_def_cfa_offset 6
 337               		.cfi_offset 29, -5
 338 00d0 00D0      		rcall .
 339 00d2 00D0      		rcall .
 340               	.LCFI9:
 341               		.cfi_def_cfa_offset 10
 342 00d4 CDB7      		in r28,__SP_L__
 343 00d6 DEB7      		in r29,__SP_H__
 344               	.LCFI10:
 345               		.cfi_def_cfa_register 28
 346               	/* prologue: function */
 347               	/* frame size = 4 */
 348               	/* stack size = 8 */
 349               	.L__stack_usage = 8
  83:LCD.h         ****     uint8_t row_offsets[] = {0x00, 0x40, 0x14, 0x54};
 350               		.loc 1 83 0
 351 00d8 0091 0000 		lds r16,.LC0
 352 00dc 1091 0000 		lds r17,.LC0+1
 353 00e0 2091 0000 		lds r18,.LC0+2
 354 00e4 3091 0000 		lds r19,.LC0+3
 355 00e8 0983      		std Y+1,r16
 356 00ea 1A83      		std Y+2,r17
 357 00ec 2B83      		std Y+3,r18
 358 00ee 3C83      		std Y+4,r19
  84:LCD.h         ****     lcd_command(0x80 | (col + row_offsets[row]));  // Set DDRAM address
 359               		.loc 1 84 0
 360 00f0 FE01      		movw r30,r28
 361 00f2 E60F      		add r30,r22
 362 00f4 F11D      		adc r31,__zero_reg__
 363 00f6 9181      		ldd r25,Z+1
 364 00f8 890F      		add r24,r25
 365               	.LVL30:
 366 00fa 8068      		ori r24,lo8(-128)
 367               	/* epilogue start */
  85:LCD.h         **** }
 368               		.loc 1 85 0
 369 00fc 0F90      		pop __tmp_reg__
 370 00fe 0F90      		pop __tmp_reg__
 371 0100 0F90      		pop __tmp_reg__
 372 0102 0F90      		pop __tmp_reg__
 373 0104 DF91      		pop r29
 374 0106 CF91      		pop r28
 375 0108 1F91      		pop r17
 376 010a 0F91      		pop r16
  84:LCD.h         ****     lcd_command(0x80 | (col + row_offsets[row]));  // Set DDRAM address
 377               		.loc 1 84 0
 378 010c 0C94 0000 		jmp lcd_command
 379               	.LVL31:
 380               		.cfi_endproc
 381               	.LFE15:
 383               	.global	initialize
 385               	initialize:
 386               	.LFB16:
  86:LCD.h         **** 
  87:LCD.h         **** // Initialize the LCD
  88:LCD.h         **** void initialize(void) {
 387               		.loc 1 88 0
 388               		.cfi_startproc
 389               	/* prologue: function */
 390               	/* frame size = 0 */
 391               	/* stack size = 0 */
 392               	.L__stack_usage = 0
 393               	.LVL32:
 394               	.LBB26:
 395               	.LBB27:
 187:/usr/lib/avr/include/util/delay.h **** 
 396               		.loc 2 187 0
 397 0110 83ED      		ldi r24,lo8(12499)
 398 0112 90E3      		ldi r25,hi8(12499)
 399 0114 0197      	1:	sbiw r24,1
 400 0116 01F4      		brne 1b
 401 0118 00C0      		rjmp .
 402 011a 0000      		nop
 403               	.LVL33:
 404               	.LBE27:
 405               	.LBE26:
  89:LCD.h         ****     _delay_ms(50);        // Wait for LCD to power up
  90:LCD.h         ****     lcd_command(0x02);    // Initialize in 4-bit mode
 406               		.loc 1 90 0
 407 011c 82E0      		ldi r24,lo8(2)
 408 011e 0E94 0000 		call lcd_command
 409               	.LVL34:
  91:LCD.h         ****     lcd_command(0x28);    // 2 line, 5x7 matrix
 410               		.loc 1 91 0
 411 0122 88E2      		ldi r24,lo8(40)
 412 0124 0E94 0000 		call lcd_command
 413               	.LVL35:
  92:LCD.h         ****     lcd_command(0x0C);    // Display on, cursor off
 414               		.loc 1 92 0
 415 0128 8CE0      		ldi r24,lo8(12)
 416 012a 0E94 0000 		call lcd_command
 417               	.LVL36:
  93:LCD.h         ****     lcd_command(0x06);    // Increment cursor
 418               		.loc 1 93 0
 419 012e 86E0      		ldi r24,lo8(6)
 420 0130 0E94 0000 		call lcd_command
 421               	.LVL37:
  94:LCD.h         ****     lcd_clear();          // Clear display
 422               		.loc 1 94 0
 423 0134 0C94 0000 		jmp lcd_clear
 424               	.LVL38:
 425               		.cfi_endproc
 426               	.LFE16:
 428               		.section	.rodata.str1.1,"aMS",@progbits,1
 429               	.LC1:
 430 0000 312E 2041 		.string	"1. Auto Mode"
 430      7574 6F20 
 430      4D6F 6465 
 430      00
 431               	.LC2:
 432 000d 322E 204D 		.string	"2. Manual Mode"
 432      616E 7561 
 432      6C20 4D6F 
 432      6465 00
 433               		.section	.text.startup,"ax",@progbits
 434               	.global	main
 436               	main:
 437               	.LFB17:
 438               		.file 3 "led.c"
   1:led.c         **** #define F_CPU 1000000
   2:led.c         **** #include <avr/io.h>           /* Include AVR standard library file */
   3:led.c         **** #include <util/delay.h>       /* Include Delay header file */
   4:led.c         **** #include "LCD.h"              /* Include your I2C LCD header file */
   5:led.c         **** 
   6:led.c         **** int main(void) {
 439               		.loc 3 6 0
 440               		.cfi_startproc
 441               	/* prologue: function */
 442               	/* frame size = 0 */
 443               	/* stack size = 0 */
 444               	.L__stack_usage = 0
   7:led.c         ****     DDRB |= (1 << PB0);      /* Set PB0 as output for LED indication */
 445               		.loc 3 7 0
 446 0000 209A      		sbi 0x4,0
   8:led.c         ****     
   9:led.c         ****     initialize();            /* Initialize the LCD */
 447               		.loc 3 9 0
 448 0002 0E94 0000 		call initialize
 449               	.LVL39:
  10:led.c         ****     
  11:led.c         ****     lcd_clear();             /* Clear the LCD display */
 450               		.loc 3 11 0
 451 0006 0E94 0000 		call lcd_clear
 452               	.LVL40:
  12:led.c         ****     lcd_setCursor(0, 0);     /* Set cursor to the first line, first position */
 453               		.loc 3 12 0
 454 000a 60E0      		ldi r22,0
 455 000c 80E0      		ldi r24,0
 456 000e 0E94 0000 		call lcd_setCursor
 457               	.LVL41:
  13:led.c         ****     lcd_print("1. Auto Mode"); /* Write string on 1st row */
 458               		.loc 3 13 0
 459 0012 80E0      		ldi r24,lo8(.LC1)
 460 0014 90E0      		ldi r25,hi8(.LC1)
 461 0016 0E94 0000 		call lcd_print
 462               	.LVL42:
  14:led.c         ****     
  15:led.c         ****     lcd_setCursor(0, 1);     /* Set cursor to the second line, first position */
 463               		.loc 3 15 0
 464 001a 61E0      		ldi r22,lo8(1)
 465 001c 80E0      		ldi r24,0
 466 001e 0E94 0000 		call lcd_setCursor
 467               	.LVL43:
  16:led.c         ****     lcd_print("2. Manual Mode"); /* Write string on 2nd row */
 468               		.loc 3 16 0
 469 0022 80E0      		ldi r24,lo8(.LC2)
 470 0024 90E0      		ldi r25,hi8(.LC2)
 471 0026 0E94 0000 		call lcd_print
 472               	.LVL44:
  17:led.c         ****     
  18:led.c         ****     while (1) {
  19:led.c         ****         PORTB ^= (1 << PB0);  /* Toggle LED on PB0 */
 473               		.loc 3 19 0
 474 002a 91E0      		ldi r25,lo8(1)
 475               	.L21:
 476               		.loc 3 19 0 is_stmt 0 discriminator 1
 477 002c 85B1      		in r24,0x5
 478 002e 8927      		eor r24,r25
 479 0030 85B9      		out 0x5,r24
 480               	.LVL45:
 481               	.LBB28:
 482               	.LBB29:
 187:/usr/lib/avr/include/util/delay.h **** 
 483               		.loc 2 187 0 is_stmt 1 discriminator 1
 484 0032 2FE9      		ldi r18,lo8(99999)
 485 0034 36E8      		ldi r19,hi8(99999)
 486 0036 81E0      		ldi r24,hlo8(99999)
 487 0038 2150      	1:	subi r18,1
 488 003a 3040      		sbci r19,0
 489 003c 8040      		sbci r24,0
 490 003e 01F4      		brne 1b
 491 0040 00C0      		rjmp .
 492 0042 0000      		nop
 493 0044 00C0      		rjmp .L21
 494               	.LBE29:
 495               	.LBE28:
 496               		.cfi_endproc
 497               	.LFE17:
 499               		.text
 500               	.Letext0:
 501               		.file 4 "/usr/lib/avr/include/stdint.h"